; Function Attrs: nounwind uwtable
define ptr @l_Lean_PersistentHashMap_forM___at_Lean_Compiler_LCNF_forEachDecl___spec__3___boxed(ptr noundef %0, ptr noundef %1, ptr noundef %2, ptr noundef %3, ptr noundef %4) local_unnamed_addr #1 {
  tail call void @lean_inc_heartbeat() #6
  %6 = tail call noalias ptr @mi_malloc_small(i64 noundef 32) #6
  %7 = icmp eq ptr %6, null
  br i1 %7, label %8, label %l_Lean_PersistentHashMap_forM___at_Lean_Compiler_LCNF_forEachDecl___spec__3.exit

8:                                                ; preds = %5
  tail call void @lean_internal_panic_out_of_memory() #7
  unreachable

l_Lean_PersistentHashMap_forM___at_Lean_Compiler_LCNF_forEachDecl___spec__3.exit: ; preds = %5
  %9 = getelementptr inbounds nuw i8, ptr %6, i64 4
  store i32 1, ptr %6, align 4, !tbaa !4
  store i32 -184549344, ptr %9, align 4
  %10 = getelementptr inbounds nuw i8, ptr %6, i64 8
  store ptr @l_Lean_PersistentHashMap_forM___at_Lean_Compiler_LCNF_forEachDecl___spec__3___lambda__1___boxed, ptr %10, align 8, !tbaa !9
  %11 = getelementptr inbounds nuw i8, ptr %6, i64 16
  store i16 7, ptr %11, align 8, !tbaa !20
  %12 = getelementptr inbounds nuw i8, ptr %6, i64 18
  store i16 1, ptr %12, align 2, !tbaa !20
  %13 = getelementptr inbounds nuw i8, ptr %6, i64 24
  store ptr %1, ptr %13, align 8, !tbaa !9
  %14 = tail call ptr @l_Lean_PersistentHashMap_foldlMAux___at_Lean_Compiler_LCNF_forEachDecl___spec__5___rarg(ptr noundef nonnull %6, ptr noundef %0, ptr noundef nonnull inttoptr (i64 1 to ptr), ptr noundef %2, ptr noundef %3, ptr noundef %4)
  %15 = ptrtoint ptr %0 to i64
  %16 = and i64 %15, 1
  %.not = icmp eq i64 %16, 0
  br i1 %.not, label %17, label %lean_dec.exit

17:                                               ; preds = %l_Lean_PersistentHashMap_forM___at_Lean_Compiler_LCNF_forEachDecl___spec__3.exit
  %18 = load i32, ptr %0, align 4, !tbaa !4
  %19 = icmp sgt i32 %18, 1
  br i1 %19, label %20, label %22, !prof !11

20:                                               ; preds = %17
  %21 = add nsw i32 %18, -1
  store i32 %21, ptr %0, align 4, !tbaa !4
  br label %lean_dec.exit

22:                                               ; preds = %17
  %.not.i = icmp eq i32 %18, 0
  br i1 %.not.i, label %lean_dec.exit, label %23

23:                                               ; preds = %22
  tail call void @lean_dec_ref_cold(ptr noundef nonnull %0) #6
  br label %lean_dec.exit

lean_dec.exit:                                    ; preds = %23, %22, %20, %l_Lean_PersistentHashMap_forM___at_Lean_Compiler_LCNF_forEachDecl___spec__3.exit
  ret ptr %14
}